target datalayout = "e-m:e-p270:32:32-p271:32:32-p272:64:64-i64:64-i128:128-f80:128-n8:16:32:64-S128"
target triple = "x86_64-pc-linux-gnu"

%struct.VP8BitWriter = type { i32, i32, i32, i32, ptr, i64, i64, i32 }

; Function Attrs: nounwind uwtable
define hidden i32 @VP8PutBit(ptr noundef %0, i32 noundef %1, i32 noundef %2) #0 {
  %4 = alloca ptr, align 8
  %5 = alloca i32, align 4
  %6 = alloca i32, align 4
  %7 = alloca i32, align 4
  %8 = alloca i32, align 4
  store ptr %0, ptr %4, align 8, !tbaa !3
  store i32 %1, ptr %5, align 4, !tbaa !8
  store i32 %2, ptr %6, align 4, !tbaa !8
  call void @llvm.lifetime.start.p0(i64 4, ptr %7) #6
  %9 = load ptr, ptr %4, align 8, !tbaa !3
  %10 = getelementptr inbounds nuw %struct.VP8BitWriter, ptr %9, i32 0, i32 0
  %11 = load i32, ptr %10, align 8, !tbaa !10
  %12 = load i32, ptr %6, align 4, !tbaa !8
  %13 = mul nsw i32 %11, %12
  %14 = ashr i32 %13, 8
  store i32 %14, ptr %7, align 4, !tbaa !8
  %15 = load i32, ptr %5, align 4, !tbaa !8
  %16 = icmp ne i32 %15, 0
  br i1 %16, label %17, label %30

17:                                               ; preds = %3
  %18 = load i32, ptr %7, align 4, !tbaa !8
  %19 = add nsw i32 %18, 1
  %20 = load ptr, ptr %4, align 8, !tbaa !3
  %21 = getelementptr inbounds nuw %struct.VP8BitWriter, ptr %20, i32 0, i32 1
  %22 = load i32, ptr %21, align 4, !tbaa !14
  %23 = add nsw i32 %22, %19
  store i32 %23, ptr %21, align 4, !tbaa !14
  %24 = load i32, ptr %7, align 4, !tbaa !8
  %25 = add nsw i32 %24, 1
  %26 = load ptr, ptr %4, align 8, !tbaa !3
  %27 = getelementptr inbounds nuw %struct.VP8BitWriter, ptr %26, i32 0, i32 0
  %28 = load i32, ptr %27, align 8, !tbaa !10
  %29 = sub nsw i32 %28, %25
  store i32 %29, ptr %27, align 8, !tbaa !10
  br label %34

30:                                               ; preds = %3
  %31 = load i32, ptr %7, align 4, !tbaa !8
  %32 = load ptr, ptr %4, align 8, !tbaa !3
  %33 = getelementptr inbounds nuw %struct.VP8BitWriter, ptr %32, i32 0, i32 0
  store i32 %31, ptr %33, align 8, !tbaa !10
  br label %34

34:                                               ; preds = %30, %17
  %35 = load ptr, ptr %4, align 8, !tbaa !3
  %36 = getelementptr inbounds nuw %struct.VP8BitWriter, ptr %35, i32 0, i32 0
  %37 = load i32, ptr %36, align 8, !tbaa !10
  %38 = icmp slt i32 %37, 127
  br i1 %38, label %39, label %73

39:                                               ; preds = %34
  call void @llvm.lifetime.start.p0(i64 4, ptr %8) #6
  %40 = load ptr, ptr %4, align 8, !tbaa !3
  %41 = getelementptr inbounds nuw %struct.VP8BitWriter, ptr %40, i32 0, i32 0
  %42 = load i32, ptr %41, align 8, !tbaa !10
  %43 = sext i32 %42 to i64
  %44 = getelementptr inbounds [128 x i8], ptr @kNorm, i64 0, i64 %43
  %45 = load i8, ptr %44, align 1, !tbaa !15
  %46 = zext i8 %45 to i32
  store i32 %46, ptr %8, align 4, !tbaa !8
  %47 = load ptr, ptr %4, align 8, !tbaa !3
  %48 = getelementptr inbounds nuw %struct.VP8BitWriter, ptr %47, i32 0, i32 0
  %49 = load i32, ptr %48, align 8, !tbaa !10
  %50 = sext i32 %49 to i64
  %51 = getelementptr inbounds [128 x i8], ptr @kNewRange, i64 0, i64 %50
  %52 = load i8, ptr %51, align 1, !tbaa !15
  %53 = zext i8 %52 to i32
  %54 = load ptr, ptr %4, align 8, !tbaa !3
  %55 = getelementptr inbounds nuw %struct.VP8BitWriter, ptr %54, i32 0, i32 0
  store i32 %53, ptr %55, align 8, !tbaa !10
  %56 = load i32, ptr %8, align 4, !tbaa !8
  %57 = load ptr, ptr %4, align 8, !tbaa !3
  %58 = getelementptr inbounds nuw %struct.VP8BitWriter, ptr %57, i32 0, i32 1
  %59 = load i32, ptr %58, align 4, !tbaa !14
  %60 = shl i32 %59, %56
  store i32 %60, ptr %58, align 4, !tbaa !14
  %61 = load i32, ptr %8, align 4, !tbaa !8
  %62 = load ptr, ptr %4, align 8, !tbaa !3
  %63 = getelementptr inbounds nuw %struct.VP8BitWriter, ptr %62, i32 0, i32 3
  %64 = load i32, ptr %63, align 4, !tbaa !16
  %65 = add nsw i32 %64, %61
  store i32 %65, ptr %63, align 4, !tbaa !16
  %66 = load ptr, ptr %4, align 8, !tbaa !3
  %67 = getelementptr inbounds nuw %struct.VP8BitWriter, ptr %66, i32 0, i32 3
  %68 = load i32, ptr %67, align 4, !tbaa !16
  %69 = icmp sgt i32 %68, 0
  br i1 %69, label %70, label %72

70:                                               ; preds = %39
  %71 = load ptr, ptr %4, align 8, !tbaa !3
  call void @Flush(ptr noundef %71)
  br label %72

72:                                               ; preds = %70, %39
  call void @llvm.lifetime.end.p0(i64 4, ptr %8) #6
  br label %73

73:                                               ; preds = %72, %34
  %74 = load i32, ptr %5, align 4, !tbaa !8
  call void @llvm.lifetime.end.p0(i64 4, ptr %7) #6
  ret i32 %74
}