; Function Attrs: nounwind uwtable
define hidden noundef i32 @VP8PutBit(ptr noundef captures(none) %0, i32 noundef returned %1, i32 noundef %2) local_unnamed_addr #0 {
  %4 = load i32, ptr %0, align 8, !tbaa !3
  %5 = mul nsw i32 %4, %2
  %6 = ashr i32 %5, 8
  %.not = icmp eq i32 %1, 0
  br i1 %.not, label %13, label %7

7:                                                ; preds = %3
  %8 = add nsw i32 %6, 1
  %9 = getelementptr inbounds nuw i8, ptr %0, i64 4
  %10 = load i32, ptr %9, align 4, !tbaa !11
  %11 = add nsw i32 %10, %8
  store i32 %11, ptr %9, align 4, !tbaa !11
  %12 = sub nsw i32 %4, %8
  br label %13

13:                                               ; preds = %3, %7
  %storemerge = phi i32 [ %12, %7 ], [ %6, %3 ]
  store i32 %storemerge, ptr %0, align 8, !tbaa !3
  %14 = icmp slt i32 %storemerge, 127
  br i1 %14, label %15, label %31

15:                                               ; preds = %13
  %16 = sext i32 %storemerge to i64
  %17 = getelementptr inbounds [128 x i8], ptr @kNorm, i64 0, i64 %16
  %18 = load i8, ptr %17, align 1, !tbaa !12
  %19 = zext i8 %18 to i32
  %20 = getelementptr inbounds [128 x i8], ptr @kNewRange, i64 0, i64 %16
  %21 = load i8, ptr %20, align 1, !tbaa !12
  %22 = zext i8 %21 to i32
  store i32 %22, ptr %0, align 8, !tbaa !3
  %23 = getelementptr inbounds nuw i8, ptr %0, i64 4
  %24 = load i32, ptr %23, align 4, !tbaa !11
  %25 = shl i32 %24, %19
  store i32 %25, ptr %23, align 4, !tbaa !11
  %26 = getelementptr inbounds nuw i8, ptr %0, i64 12
  %27 = load i32, ptr %26, align 4, !tbaa !13
  %28 = add nsw i32 %27, %19
  store i32 %28, ptr %26, align 4, !tbaa !13
  %29 = icmp sgt i32 %28, 0
  br i1 %29, label %30, label %31

30:                                               ; preds = %15
  tail call fastcc void @Flush(ptr noundef nonnull %0)
  br label %31

31:                                               ; preds = %15, %30, %13
  ret i32 %1
}